; Function Attrs: mustprogress uwtable
define void @_ZNK6casadi6Linsol11plugin_nameB5cxx11Ev(ptr dead_on_unwind noalias writable sret(%"class.std::__cxx11::basic_string") align 8 %0, ptr noundef nonnull align 8 dereferenceable(8) %1) local_unnamed_addr #3 align 2 personality ptr @__gxx_personality_v0 {
  %3 = alloca %"class.std::allocator", align 1
  %4 = tail call noundef ptr @_ZNK6casadi12SharedObjectptEv(ptr noundef nonnull align 8 dereferenceable(8) %1)
  %5 = load ptr, ptr %4, align 8
  %6 = getelementptr inbounds i8, ptr %5, i64 192
  %7 = load ptr, ptr %6, align 8
  %8 = tail call noundef ptr %7(ptr noundef nonnull align 8 dereferenceable(184) %4)
  call void @_ZNSaIcEC1Ev(ptr noundef nonnull align 1 dereferenceable(1) %3) #20
  %9 = invoke noundef ptr @_ZNSt7__cxx1112basic_stringIcSt11char_traitsIcESaIcEE13_M_local_dataEv(ptr noundef nonnull align 8 dereferenceable(32) %0)
          to label %.noexc unwind label %18

.noexc:                                           ; preds = %2
  invoke void @_ZNSt7__cxx1112basic_stringIcSt11char_traitsIcESaIcEE12_Alloc_hiderC1EPcRKS3_(ptr noundef nonnull align 8 dereferenceable(8) %0, ptr noundef %9, ptr noundef nonnull align 1 dereferenceable(1) %3)
          to label %.noexc2 unwind label %18

.noexc2:                                          ; preds = %.noexc
  %10 = icmp eq ptr %8, null
  br i1 %10, label %11, label %15

11:                                               ; preds = %.noexc2
  invoke void @_ZSt19__throw_logic_errorPKc(ptr noundef nonnull @.str.43) #22
          to label %12 unwind label %13

12:                                               ; preds = %11
  unreachable

13:                                               ; preds = %15, %11
  %14 = landingpad { ptr, i32 }
          cleanup
  call void @_ZNSaIcED2Ev(ptr noundef nonnull align 1 dereferenceable(1) %0) #20
  br label %.body

15:                                               ; preds = %.noexc2
  %16 = call noundef i64 @strlen(ptr noundef nonnull dereferenceable(1) %8) #20
  %17 = getelementptr inbounds i8, ptr %8, i64 %16
  invoke void @_ZNSt7__cxx1112basic_stringIcSt11char_traitsIcESaIcEE12_M_constructIPKcEEvT_S8_St20forward_iterator_tag(ptr noundef nonnull align 8 dereferenceable(32) %0, ptr noundef nonnull %8, ptr noundef nonnull %17)
          to label %_ZNSt7__cxx1112basic_stringIcSt11char_traitsIcESaIcEEC2IS3_EEPKcRKS3_.exit unwind label %13

_ZNSt7__cxx1112basic_stringIcSt11char_traitsIcESaIcEEC2IS3_EEPKcRKS3_.exit: ; preds = %15
  call void @_ZNSaIcED1Ev(ptr noundef nonnull align 1 dereferenceable(1) %3) #20
  ret void

18:                                               ; preds = %.noexc, %2
  %19 = landingpad { ptr, i32 }
          cleanup
  br label %.body

.body:                                            ; preds = %13, %18
  %eh.lpad-body = phi { ptr, i32 } [ %19, %18 ], [ %14, %13 ]
  call void @_ZNSaIcED1Ev(ptr noundef nonnull align 1 dereferenceable(1) %3) #20
  resume { ptr, i32 } %eh.lpad-body
}